; Function Attrs: nounwind uwtable
define internal ptr @deque_concat(ptr noundef %0, ptr noundef %1) #0 {
  %3 = getelementptr i8, ptr %0, i64 8
  %.val20.i = load ptr, ptr %3, align 8, !tbaa !22
  %4 = tail call ptr @PyType_GetModuleByDef(ptr noundef %.val20.i, ptr noundef nonnull @_collectionsmodule) #9
  %5 = getelementptr i8, ptr %4, i64 32
  %.val.i.i = load ptr, ptr %5, align 8, !tbaa !4
  %6 = load ptr, ptr %.val.i.i, align 8, !tbaa !13
  %7 = tail call i32 @PyObject_IsInstance(ptr noundef %1, ptr noundef %6) #9
  %8 = icmp slt i32 %7, 1
  br i1 %8, label %9, label %17

9:                                                ; preds = %2
  %10 = icmp eq i32 %7, 0
  br i1 %10, label %11, label %deque_concat_lock_held.exit

11:                                               ; preds = %9
  %12 = load ptr, ptr @PyExc_TypeError, align 8, !tbaa !21
  %13 = getelementptr i8, ptr %1, i64 8
  %.val.i = load ptr, ptr %13, align 8, !tbaa !22
  %14 = getelementptr inbounds nuw i8, ptr %.val.i, i64 24
  %15 = load ptr, ptr %14, align 8, !tbaa !70
  %16 = tail call ptr (ptr, ptr, ...) @PyErr_Format(ptr noundef %12, ptr noundef nonnull @.str.47, ptr noundef %15) #9
  br label %deque_concat_lock_held.exit

17:                                               ; preds = %2
  %18 = tail call fastcc ptr @deque_copy_impl(ptr noundef nonnull %0)
  %19 = icmp eq ptr %18, null
  br i1 %19, label %deque_concat_lock_held.exit, label %20

20:                                               ; preds = %17
  %21 = tail call fastcc ptr @deque_extend_impl(ptr noundef nonnull %18, ptr noundef %1)
  %22 = icmp eq ptr %21, null
  br i1 %22, label %23, label %29

23:                                               ; preds = %20
  %24 = load i32, ptr %18, align 8, !tbaa !20
  %.not.i17.i = icmp sgt i32 %24, -1
  br i1 %.not.i17.i, label %25, label %deque_concat_lock_held.exit

25:                                               ; preds = %23
  %26 = add nsw i32 %24, -1
  store i32 %26, ptr %18, align 8, !tbaa !20
  %27 = icmp eq i32 %26, 0
  br i1 %27, label %28, label %deque_concat_lock_held.exit

28:                                               ; preds = %25
  tail call void @_Py_Dealloc(ptr noundef nonnull %18) #9
  br label %deque_concat_lock_held.exit

29:                                               ; preds = %20
  %30 = load i32, ptr %21, align 8, !tbaa !20
  %.not.i.i = icmp sgt i32 %30, -1
  br i1 %.not.i.i, label %31, label %deque_concat_lock_held.exit

31:                                               ; preds = %29
  %32 = add nsw i32 %30, -1
  store i32 %32, ptr %21, align 8, !tbaa !20
  %33 = icmp eq i32 %32, 0
  br i1 %33, label %34, label %deque_concat_lock_held.exit

34:                                               ; preds = %31
  tail call void @_Py_Dealloc(ptr noundef nonnull %21) #9
  br label %deque_concat_lock_held.exit

deque_concat_lock_held.exit:                      ; preds = %9, %11, %17, %23, %25, %28, %29, %31, %34
  %.0.i = phi ptr [ null, %11 ], [ null, %9 ], [ null, %17 ], [ null, %23 ], [ null, %25 ], [ null, %28 ], [ %18, %29 ], [ %18, %31 ], [ %18, %34 ]
  ret ptr %.0.i
}